; ModuleID = '12/839.c'
source_filename = "12/839.c"
target datalayout = "e-m:e-p270:32:32-p271:32:32-p272:64:64-i64:64-f80:128-n8:16:32:64-S128"
target triple = "x86_64-pc-linux-gnu"

@.str = private unnamed_addr constant [3 x i8] c"%d\00", align 1
@.str.1 = private unnamed_addr constant [4 x i8] c"%d\0A\00", align 1

; Function Attrs: noinline nounwind uwtable
define dso_local i32 @main() #0 {
  %1 = alloca i32, align 4
  %2 = alloca [20 x i32], align 16
  %3 = alloca [100 x i32], align 16
  %4 = alloca i32, align 4
  %5 = alloca i32, align 4
  %6 = alloca i32, align 4
  %7 = alloca i32, align 4
  %8 = alloca i32, align 4
  store i32 0, i32* %1, align 4
  %9 = bitcast [100 x i32]* %3 to i8*
  call void @llvm.memset.p0i8.i64(i8* align 16 %9, i8 0, i64 400, i1 false)
  store i32 1, i32* %7, align 4
  store i32 1, i32* %7, align 4
  br label %10

10:                                               ; preds = %83, %0
  store i32 1, i32* %4, align 4
  br label %11

11:                                               ; preds = %27, %10
  %12 = load i32, i32* %4, align 4
  %13 = sub nsw i32 %12, 1
  %14 = sext i32 %13 to i64
  %15 = getelementptr inbounds [20 x i32], [20 x i32]* %2, i64 0, i64 %14
  %16 = call i32 (i8*, ...) @__isoc99_scanf(i8* getelementptr inbounds ([3 x i8], [3 x i8]* @.str, i64 0, i64 0), i32* %15)
  %17 = load i32, i32* %4, align 4
  %18 = sub nsw i32 %17, 1
  %19 = sext i32 %18 to i64
  %20 = getelementptr inbounds [20 x i32], [20 x i32]* %2, i64 0, i64 %19
  %21 = load i32, i32* %20, align 4
  %22 = icmp eq i32 %21, -1
  br i1 %22, label %23, label %24

23:                                               ; preds = %11
  br label %34

24:                                               ; preds = %11
  %25 = load i32, i32* %4, align 4
  %26 = add nsw i32 %25, 1
  store i32 %26, i32* %4, align 4
  br label %27

27:                                               ; preds = %24
  %28 = load i32, i32* %4, align 4
  %29 = sub nsw i32 %28, 2
  %30 = sext i32 %29 to i64
  %31 = getelementptr inbounds [20 x i32], [20 x i32]* %2, i64 0, i64 %30
  %32 = load i32, i32* %31, align 4
  %33 = icmp ne i32 %32, 0
  br i1 %33, label %11, label %34

34:                                               ; preds = %27, %23
  %35 = load i32, i32* %4, align 4
  %36 = sub nsw i32 %35, 1
  %37 = sext i32 %36 to i64
  %38 = getelementptr inbounds [20 x i32], [20 x i32]* %2, i64 0, i64 %37
  %39 = load i32, i32* %38, align 4
  %40 = icmp eq i32 %39, -1
  br i1 %40, label %41, label %42

41:                                               ; preds = %34
  br label %86

42:                                               ; preds = %34
  store i32 1, i32* %5, align 4
  br label %43

43:                                               ; preds = %79, %42
  %44 = load i32, i32* %5, align 4
  %45 = load i32, i32* %4, align 4
  %46 = sub nsw i32 %45, 2
  %47 = icmp sle i32 %44, %46
  br i1 %47, label %48, label %82

48:                                               ; preds = %43
  store i32 1, i32* %6, align 4
  br label %49

49:                                               ; preds = %75, %48
  %50 = load i32, i32* %6, align 4
  %51 = load i32, i32* %4, align 4
  %52 = sub nsw i32 %51, 2
  %53 = icmp sle i32 %50, %52
  br i1 %53, label %54, label %78

54:                                               ; preds = %49
  %55 = load i32, i32* %5, align 4
  %56 = sub nsw i32 %55, 1
  %57 = sext i32 %56 to i64
  %58 = getelementptr inbounds [20 x i32], [20 x i32]* %2, i64 0, i64 %57
  %59 = load i32, i32* %58, align 4
  %60 = load i32, i32* %6, align 4
  %61 = sub nsw i32 %60, 1
  %62 = sext i32 %61 to i64
  %63 = getelementptr inbounds [20 x i32], [20 x i32]* %2, i64 0, i64 %62
  %64 = load i32, i32* %63, align 4
  %65 = mul nsw i32 2, %64
  %66 = icmp eq i32 %59, %65
  br i1 %66, label %67, label %74

67:                                               ; preds = %54
  %68 = load i32, i32* %7, align 4
  %69 = sub nsw i32 %68, 1
  %70 = sext i32 %69 to i64
  %71 = getelementptr inbounds [100 x i32], [100 x i32]* %3, i64 0, i64 %70
  %72 = load i32, i32* %71, align 4
  %73 = add nsw i32 %72, 1
  store i32 %73, i32* %71, align 4
  br label %74

74:                                               ; preds = %67, %54
  br label %75

75:                                               ; preds = %74
  %76 = load i32, i32* %6, align 4
  %77 = add nsw i32 %76, 1
  store i32 %77, i32* %6, align 4
  br label %49

78:                                               ; preds = %49
  br label %79

79:                                               ; preds = %78
  %80 = load i32, i32* %5, align 4
  %81 = add nsw i32 %80, 1
  store i32 %81, i32* %5, align 4
  br label %43

82:                                               ; preds = %43
  br label %83

83:                                               ; preds = %82
  %84 = load i32, i32* %7, align 4
  %85 = add nsw i32 %84, 1
  store i32 %85, i32* %7, align 4
  br label %10

86:                                               ; preds = %41
  store i32 1, i32* %8, align 4
  br label %87

87:                                               ; preds = %99, %86
  %88 = load i32, i32* %8, align 4
  %89 = load i32, i32* %7, align 4
  %90 = sub nsw i32 %89, 1
  %91 = icmp sle i32 %88, %90
  br i1 %91, label %92, label %102

92:                                               ; preds = %87
  %93 = load i32, i32* %8, align 4
  %94 = sub nsw i32 %93, 1
  %95 = sext i32 %94 to i64
  %96 = getelementptr inbounds [100 x i32], [100 x i32]* %3, i64 0, i64 %95
  %97 = load i32, i32* %96, align 4
  %98 = call i32 (i8*, ...) @printf(i8* getelementptr inbounds ([4 x i8], [4 x i8]* @.str.1, i64 0, i64 0), i32 %97)
  br label %99

99:                                               ; preds = %92
  %100 = load i32, i32* %8, align 4
  %101 = add nsw i32 %100, 1
  store i32 %101, i32* %8, align 4
  br label %87

102:                                              ; preds = %87
  ret i32 0
}

; Function Attrs: argmemonly nounwind willreturn
declare void @llvm.memset.p0i8.i64(i8* nocapture writeonly, i8, i64, i1 immarg) #1

declare dso_local i32 @__isoc99_scanf(i8*, ...) #2

declare dso_local i32 @printf(i8*, ...) #2


!llvm.module.flags = !{!0}
!llvm.ident = !{!1}

!0 = !{i32 1, !"wchar_size", i32 4}
!1 = !{!"clang version 10.0.0-4ubuntu1 "}
